target datalayout = "e-m:e-p270:32:32-p271:32:32-p272:64:64-i64:64-i128:128-f80:128-n8:16:32:64-S128"
target triple = "x86_64-pc-linux-gnu"

%struct.TCGContext = type { ptr, ptr, ptr, ptr, ptr, i32, i32, i32, i32, i32, i32, i32, i8, i8, i8, i32, i32, i64, i64, i64, ptr, ptr, ptr, ptr, ptr, i64, ptr, ptr, ptr, ptr, %struct.anon, ptr, ptr, ptr, ptr, ptr, [6 x ptr], [6 x %struct.TCGTempSet], [512 x %struct.TCGTemp], %union.anon, %union.anon, %struct.anon.0, ptr, [32 x ptr], [512 x i16], ptr, [1 x %struct.__jmp_buf_tag] }
%struct.anon = type { ptr, ptr }
%struct.TCGTempSet = type { [8 x i64] }
%struct.TCGTemp = type { i64, i64, ptr, i64, ptr, i64, ptr }
%union.anon = type { %struct.QTailQLink }
%struct.QTailQLink = type { ptr, ptr }
%struct.anon.0 = type { ptr, ptr }
%struct.__jmp_buf_tag = type { [8 x i64], i32, %struct.__sigset_t }
%struct.__sigset_t = type { [16 x i64] }

; Function Attrs: inlinehint nounwind sspstrong uwtable
define internal void @tcg_out8(ptr noundef %0, i8 noundef zeroext %1) #3 {
  %3 = alloca ptr, align 8
  %4 = alloca i8, align 1
  store ptr %0, ptr %3, align 8
  store i8 %1, ptr %4, align 1
  %5 = load i8, ptr %4, align 1
  %6 = load ptr, ptr %3, align 8
  %7 = getelementptr inbounds nuw %struct.TCGContext, ptr %6, i32 0, i32 23
  %8 = load ptr, ptr %7, align 8
  %9 = getelementptr inbounds nuw i8, ptr %8, i32 1
  store ptr %9, ptr %7, align 8
  store i8 %5, ptr %8, align 1
  ret void
}

; Function Attrs: nounwind sspstrong uwtable
define internal void @tcg_out_opc(ptr noundef %0, i32 noundef %1, i32 noundef %2, i32 noundef %3, i32 noundef %4) #0 {
  %6 = alloca ptr, align 8
  %7 = alloca i32, align 4
  %8 = alloca i32, align 4
  %9 = alloca i32, align 4
  %10 = alloca i32, align 4
  %11 = alloca i32, align 4
  store ptr %0, ptr %6, align 8
  store i32 %1, ptr %7, align 4
  store i32 %2, ptr %8, align 4
  store i32 %3, ptr %9, align 4
  store i32 %4, ptr %10, align 4
  call void @llvm.lifetime.start.p0(i64 4, ptr %11) #19
  store i32 0, ptr %11, align 4, !annotation !4
  %12 = load i32, ptr %7, align 4
  %13 = and i32 %12, 32768
  %14 = icmp ne i32 %13, 0
  br i1 %14, label %15, label %17

15:                                               ; preds = %5
  %16 = load ptr, ptr %6, align 8
  call void @tcg_out8(ptr noundef %16, i8 noundef zeroext 101)
  br label %17

17:                                               ; preds = %15, %5
  %18 = load i32, ptr %7, align 4
  %19 = and i32 %18, 1024
  %20 = icmp ne i32 %19, 0
  br i1 %20, label %21, label %31

21:                                               ; preds = %17
  br label %22

22:                                               ; preds = %21
  %23 = load i32, ptr %7, align 4
  %24 = and i32 %23, 4096
  %25 = icmp eq i32 %24, 0
  br i1 %25, label %27, label %26

26:                                               ; preds = %22
  unreachable

27:                                               ; preds = %22
  br label %28

28:                                               ; preds = %27
  br label %29

29:                                               ; preds = %28
  %30 = load ptr, ptr %6, align 8
  call void @tcg_out8(ptr noundef %30, i8 noundef zeroext 102)
  br label %31

31:                                               ; preds = %29, %17
  %32 = load i32, ptr %7, align 4
  %33 = and i32 %32, 131072
  %34 = icmp ne i32 %33, 0
  br i1 %34, label %35, label %37

35:                                               ; preds = %31
  %36 = load ptr, ptr %6, align 8
  call void @tcg_out8(ptr noundef %36, i8 noundef zeroext -13)
  br label %44

37:                                               ; preds = %31
  %38 = load i32, ptr %7, align 4
  %39 = and i32 %38, 262144
  %40 = icmp ne i32 %39, 0
  br i1 %40, label %41, label %43

41:                                               ; preds = %37
  %42 = load ptr, ptr %6, align 8
  call void @tcg_out8(ptr noundef %42, i8 noundef zeroext -14)
  br label %43

43:                                               ; preds = %41, %37
  br label %44

44:                                               ; preds = %43, %35
  store i32 0, ptr %11, align 4
  %45 = load i32, ptr %7, align 4
  %46 = and i32 %45, 4096
  %47 = icmp ne i32 %46, 0
  %48 = select i1 %47, i32 8, i32 0
  %49 = load i32, ptr %11, align 4
  %50 = or i32 %49, %48
  store i32 %50, ptr %11, align 4
  %51 = load i32, ptr %8, align 4
  %52 = and i32 %51, 8
  %53 = ashr i32 %52, 1
  %54 = load i32, ptr %11, align 4
  %55 = or i32 %54, %53
  store i32 %55, ptr %11, align 4
  %56 = load i32, ptr %10, align 4
  %57 = and i32 %56, 8
  %58 = ashr i32 %57, 2
  %59 = load i32, ptr %11, align 4
  %60 = or i32 %59, %58
  store i32 %60, ptr %11, align 4
  %61 = load i32, ptr %9, align 4
  %62 = and i32 %61, 8
  %63 = ashr i32 %62, 3
  %64 = load i32, ptr %11, align 4
  %65 = or i32 %64, %63
  store i32 %65, ptr %11, align 4
  %66 = load i32, ptr %7, align 4
  %67 = load i32, ptr %8, align 4
  %68 = icmp sge i32 %67, 4
  %69 = select i1 %68, i32 8192, i32 0
  %70 = and i32 %66, %69
  %71 = load i32, ptr %11, align 4
  %72 = or i32 %71, %70
  store i32 %72, ptr %11, align 4
  %73 = load i32, ptr %7, align 4
  %74 = load i32, ptr %9, align 4
  %75 = icmp sge i32 %74, 4
  %76 = select i1 %75, i32 16384, i32 0
  %77 = and i32 %73, %76
  %78 = load i32, ptr %11, align 4
  %79 = or i32 %78, %77
  store i32 %79, ptr %11, align 4
  %80 = load i32, ptr %11, align 4
  %81 = icmp ne i32 %80, 0
  br i1 %81, label %82, label %87

82:                                               ; preds = %44
  %83 = load ptr, ptr %6, align 8
  %84 = load i32, ptr %11, align 4
  %85 = or i32 %84, 64
  %86 = trunc i32 %85 to i8
  call void @tcg_out8(ptr noundef %83, i8 noundef zeroext %86)
  br label %87

87:                                               ; preds = %82, %44
  %88 = load i32, ptr %7, align 4
  %89 = and i32 %88, 66304
  %90 = icmp ne i32 %89, 0
  br i1 %90, label %91, label %106

91:                                               ; preds = %87
  %92 = load ptr, ptr %6, align 8
  call void @tcg_out8(ptr noundef %92, i8 noundef zeroext 15)
  %93 = load i32, ptr %7, align 4
  %94 = and i32 %93, 512
  %95 = icmp ne i32 %94, 0
  br i1 %95, label %96, label %98

96:                                               ; preds = %91
  %97 = load ptr, ptr %6, align 8
  call void @tcg_out8(ptr noundef %97, i8 noundef zeroext 56)
  br label %105

98:                                               ; preds = %91
  %99 = load i32, ptr %7, align 4
  %100 = and i32 %99, 65536
  %101 = icmp ne i32 %100, 0
  br i1 %101, label %102, label %104

102:                                              ; preds = %98
  %103 = load ptr, ptr %6, align 8
  call void @tcg_out8(ptr noundef %103, i8 noundef zeroext 58)
  br label %104

104:                                              ; preds = %102, %98
  br label %105

105:                                              ; preds = %104, %96
  br label %106

106:                                              ; preds = %105, %87
  %107 = load ptr, ptr %6, align 8
  %108 = load i32, ptr %7, align 4
  %109 = trunc i32 %108 to i8
  call void @tcg_out8(ptr noundef %107, i8 noundef zeroext %109)
  call void @llvm.lifetime.end.p0(i64 4, ptr %11) #19
  ret void
}

; Function Attrs: nounwind sspstrong uwtable
define internal void @tcg_out_modrm(ptr noundef %0, i32 noundef %1, i32 noundef %2, i32 noundef %3) #0 {
  %5 = alloca ptr, align 8
  %6 = alloca i32, align 4
  %7 = alloca i32, align 4
  %8 = alloca i32, align 4
  store ptr %0, ptr %5, align 8
  store i32 %1, ptr %6, align 4
  store i32 %2, ptr %7, align 4
  store i32 %3, ptr %8, align 4
  %9 = load ptr, ptr %5, align 8
  %10 = load i32, ptr %6, align 4
  %11 = load i32, ptr %7, align 4
  %12 = load i32, ptr %8, align 4
  call void @tcg_out_opc(ptr noundef %9, i32 noundef %10, i32 noundef %11, i32 noundef %12, i32 noundef 0)
  %13 = load ptr, ptr %5, align 8
  %14 = load i32, ptr %7, align 4
  %15 = and i32 %14, 7
  %16 = shl i32 %15, 3
  %17 = or i32 192, %16
  %18 = load i32, ptr %8, align 4
  %19 = and i32 %18, 7
  %20 = or i32 %17, %19
  %21 = trunc i32 %20 to i8
  call void @tcg_out8(ptr noundef %13, i8 noundef zeroext %21)
  ret void
}

; Function Attrs: nounwind sspstrong uwtable
define internal void @tcg_out_ext32s(ptr noundef %0, i32 noundef %1, i32 noundef %2) #0 {
  %4 = alloca ptr, align 8
  %5 = alloca i32, align 4
  %6 = alloca i32, align 4
  store ptr %0, ptr %4, align 8
  store i32 %1, ptr %5, align 4
  store i32 %2, ptr %6, align 4
  br label %7

7:                                                ; preds = %3
  br label %8

8:                                                ; preds = %7
  %9 = load ptr, ptr %4, align 8
  %10 = load i32, ptr %5, align 4
  %11 = load i32, ptr %6, align 4
  call void @tcg_out_modrm(ptr noundef %9, i32 noundef 4195, i32 noundef %10, i32 noundef %11)
  ret void
}