; Function Attrs: mustprogress nofree norecurse nosync nounwind sspstrong willreturn memory(write, argmem: readwrite, inaccessiblemem: none) uwtable
define internal fastcc void @tcg_out_ext32s(ptr noundef captures(none) %0, i32 noundef %1, i32 noundef %2) unnamed_addr #21 {
  %4 = lshr i32 %1, 1
  %5 = and i32 %4, 4
  %6 = lshr i32 %2, 3
  %7 = and i32 %6, 1
  %8 = or disjoint i32 %7, %5
  %9 = trunc nuw nsw i32 %8 to i8
  %10 = or disjoint i8 %9, 72
  %11 = getelementptr inbounds nuw i8, ptr %0, i64 128
  %12 = load ptr, ptr %11, align 8
  %13 = getelementptr inbounds nuw i8, ptr %12, i64 1
  store ptr %13, ptr %11, align 8
  store i8 %10, ptr %12, align 1
  %14 = load ptr, ptr %11, align 8
  %15 = getelementptr inbounds nuw i8, ptr %14, i64 1
  store ptr %15, ptr %11, align 8
  store i8 99, ptr %14, align 1
  %16 = shl i32 %1, 3
  %17 = and i32 %2, 7
  %18 = or disjoint i32 %17, %16
  %19 = trunc i32 %18 to i8
  %20 = or i8 %19, -64
  %21 = load ptr, ptr %11, align 8
  %22 = getelementptr inbounds nuw i8, ptr %21, i64 1
  store ptr %22, ptr %11, align 8
  store i8 %20, ptr %21, align 1
  ret void
}